; Function Attrs: mustprogress uwtable
define void @_ZN7t_state14changeNumAtomsEi(ptr noundef nonnull align 8 dereferenceable(832) %0, i32 noundef %1) local_unnamed_addr #4 align 2 {
  store i32 %1, ptr %0, align 8
  %3 = getelementptr inbounds i8, ptr %0, i64 4
  %4 = load i32, ptr %3, align 4
  %5 = and i32 %4, 128
  %.not = icmp eq i32 %5, 0
  br i1 %.not, label %9, label %6

6:                                                ; preds = %2
  %7 = getelementptr inbounds i8, ptr %0, i64 408
  %8 = sext i32 %1 to i64
  tail call void @_ZN3gmx12PaddedVectorINS_11BasicVectorIfEENS_9AllocatorIS2_NS_20HostAllocationPolicyEEEE17resizeWithPaddingEl(ptr noundef nonnull align 8 dereferenceable(40) %7, i64 noundef %8)
  %.pre = load i32, ptr %3, align 4
  br label %9

9:                                                ; preds = %6, %2
  %10 = phi i32 [ %.pre, %6 ], [ %4, %2 ]
  %11 = and i32 %10, 256
  %.not4 = icmp eq i32 %11, 0
  br i1 %.not4, label %15, label %12

12:                                               ; preds = %9
  %13 = getelementptr inbounds i8, ptr %0, i64 448
  %14 = sext i32 %1 to i64
  tail call void @_ZN3gmx12PaddedVectorINS_11BasicVectorIfEENS_9AllocatorIS2_NS_20HostAllocationPolicyEEEE17resizeWithPaddingEl(ptr noundef nonnull align 8 dereferenceable(40) %13, i64 noundef %14)
  %.pre6 = load i32, ptr %3, align 4
  br label %15

15:                                               ; preds = %12, %9
  %16 = phi i32 [ %.pre6, %12 ], [ %10, %9 ]
  %17 = and i32 %16, 1024
  %.not5 = icmp eq i32 %17, 0
  br i1 %.not5, label %21, label %18

18:                                               ; preds = %15
  %19 = getelementptr inbounds i8, ptr %0, i64 488
  %20 = sext i32 %1 to i64
  tail call void @_ZN3gmx12PaddedVectorINS_11BasicVectorIfEENS_9AllocatorIS2_NS_20HostAllocationPolicyEEEE17resizeWithPaddingEl(ptr noundef nonnull align 8 dereferenceable(40) %19, i64 noundef %20)
  br label %21

21:                                               ; preds = %18, %15
  ret void
}